target datalayout = "e-m:e-p270:32:32-p271:32:32-p272:64:64-i64:64-i128:128-f80:128-n8:16:32:64-S128"
target triple = "x86_64-unknown-linux-gnu"

%"class.sat::literal" = type { i32 }
%class.svector.17 = type { %class.vector.18 }
%class.vector.18 = type { ptr }
%"struct.pb::solver::ineq" = type { %class.svector.17, i64 }
%"struct.std::pair" = type { i32, %"class.sat::literal" }

@_ZN3satL12null_literalE = internal global %"class.sat::literal" zeroinitializer, align 4
@.str.4 = private unnamed_addr constant [2 x i8] c"\0A\00", align 1
@.str.29 = private unnamed_addr constant [2 x i8] c" \00", align 1
@.str.99 = private unnamed_addr constant [2 x i8] c"*\00", align 1
@.str.100 = private unnamed_addr constant [4 x i8] c">= \00", align 1
@.str.125 = private unnamed_addr constant [5 x i8] c"null\00", align 1
@.str.126 = private unnamed_addr constant [2 x i8] c"-\00", align 1
@.str.127 = private unnamed_addr constant [1 x i8] zeroinitializer, align 1

; Function Attrs: mustprogress nounwind uwtable
define linkonce_odr hidden noundef i32 @_ZNK3sat7literal3varEv(ptr noundef nonnull align 4 dereferenceable(4) %this) #4 comdat align 2 {
entry:
  %this.addr = alloca ptr, align 8
  store ptr %this, ptr %this.addr, align 8
  %this1 = load ptr, ptr %this.addr, align 8
  %m_val = getelementptr inbounds %"class.sat::literal", ptr %this1, i32 0, i32 0
  %0 = load i32, ptr %m_val, align 4
  %shr = lshr i32 %0, 1
  ret i32 %shr
}

; Function Attrs: mustprogress nounwind uwtable
define linkonce_odr hidden noundef zeroext i1 @_ZNK3sat7literal4signEv(ptr noundef nonnull align 4 dereferenceable(4) %this) #4 comdat align 2 {
entry:
  %this.addr = alloca ptr, align 8
  store ptr %this, ptr %this.addr, align 8
  %this1 = load ptr, ptr %this.addr, align 8
  %m_val = getelementptr inbounds %"class.sat::literal", ptr %this1, i32 0, i32 0
  %0 = load i32, ptr %m_val, align 4
  %conv = zext i32 %0 to i64
  %and = and i64 %conv, 1
  %tobool = icmp ne i64 %and, 0
  ret i1 %tobool
}

; Function Attrs: mustprogress nounwind uwtable
define linkonce_odr hidden noundef zeroext i1 @_ZN3sateqERKNS_7literalES2_(ptr noundef nonnull align 4 dereferenceable(4) %l1, ptr noundef nonnull align 4 dereferenceable(4) %l2) #4 comdat {
entry:
  %l1.addr = alloca ptr, align 8
  %l2.addr = alloca ptr, align 8
  store ptr %l1, ptr %l1.addr, align 8
  store ptr %l2, ptr %l2.addr, align 8
  %0 = load ptr, ptr %l1.addr, align 8
  %m_val = getelementptr inbounds %"class.sat::literal", ptr %0, i32 0, i32 0
  %1 = load i32, ptr %m_val, align 4
  %2 = load ptr, ptr %l2.addr, align 8
  %m_val1 = getelementptr inbounds %"class.sat::literal", ptr %2, i32 0, i32 0
  %3 = load i32, ptr %m_val1, align 4
  %cmp = icmp eq i32 %1, %3
  ret i1 %cmp
}

; Function Attrs: mustprogress nounwind uwtable
define linkonce_odr hidden noundef nonnull align 4 dereferenceable(8) ptr @_ZNK6vectorISt4pairIjN3sat7literalEELb0EjEixEj(ptr noundef nonnull align 8 dereferenceable(8) %this, i32 noundef %idx) #4 comdat align 2 {
entry:
  %this.addr = alloca ptr, align 8
  %idx.addr = alloca i32, align 4
  store ptr %this, ptr %this.addr, align 8
  store i32 %idx, ptr %idx.addr, align 4
  %this1 = load ptr, ptr %this.addr, align 8
  %m_data = getelementptr inbounds %class.vector.18, ptr %this1, i32 0, i32 0
  %0 = load ptr, ptr %m_data, align 8
  %1 = load i32, ptr %idx.addr, align 4
  %idxprom = zext i32 %1 to i64
  %arrayidx = getelementptr inbounds %"struct.std::pair", ptr %0, i64 %idxprom
  ret ptr %arrayidx
}

; Function Attrs: mustprogress nounwind uwtable
define linkonce_odr hidden noundef i32 @_ZNK6vectorISt4pairIjN3sat7literalEELb0EjE4sizeEv(ptr noundef nonnull align 8 dereferenceable(8) %this) #4 comdat align 2 {
entry:
  %retval = alloca i32, align 4
  %this.addr = alloca ptr, align 8
  store ptr %this, ptr %this.addr, align 8
  %this1 = load ptr, ptr %this.addr, align 8
  %m_data = getelementptr inbounds %class.vector.18, ptr %this1, i32 0, i32 0
  %0 = load ptr, ptr %m_data, align 8
  %cmp = icmp eq ptr %0, null
  br i1 %cmp, label %if.then, label %if.end

if.then:                                          ; preds = %entry
  store i32 0, ptr %retval, align 4
  br label %return

if.end:                                           ; preds = %entry
  %m_data2 = getelementptr inbounds %class.vector.18, ptr %this1, i32 0, i32 0
  %1 = load ptr, ptr %m_data2, align 8
  %arrayidx = getelementptr inbounds i32, ptr %1, i64 -1
  %2 = load i32, ptr %arrayidx, align 4
  store i32 %2, ptr %retval, align 4
  br label %return

return:                                           ; preds = %if.end, %if.then
  %3 = load i32, ptr %retval, align 4
  ret i32 %3
}

; Function Attrs: mustprogress uwtable
define linkonce_odr hidden noundef nonnull align 8 dereferenceable(8) ptr @_ZN3satlsERSoNS_7literalE(ptr noundef nonnull align 8 dereferenceable(8) %out, i32 %l.coerce) #5 comdat {
entry:
  %l = alloca %"class.sat::literal", align 4
  %out.addr = alloca ptr, align 8
  %coerce.dive = getelementptr inbounds %"class.sat::literal", ptr %l, i32 0, i32 0
  store i32 %l.coerce, ptr %coerce.dive, align 4
  store ptr %out, ptr %out.addr, align 8
  %call = call noundef zeroext i1 @_ZN3sateqERKNS_7literalES2_(ptr noundef nonnull align 4 dereferenceable(4) %l, ptr noundef nonnull align 4 dereferenceable(4) @_ZN3satL12null_literalE)
  br i1 %call, label %if.then, label %if.else

if.then:                                          ; preds = %entry
  %0 = load ptr, ptr %out.addr, align 8
  %call1 = call noundef nonnull align 8 dereferenceable(8) ptr @_ZStlsISt11char_traitsIcEERSt13basic_ostreamIcT_ES5_PKc(ptr noundef nonnull align 8 dereferenceable(8) %0, ptr noundef @.str.125)
  br label %if.end

if.else:                                          ; preds = %entry
  %1 = load ptr, ptr %out.addr, align 8
  %call2 = call noundef zeroext i1 @_ZNK3sat7literal4signEv(ptr noundef nonnull align 4 dereferenceable(4) %l)
  %cond = select i1 %call2, ptr @.str.126, ptr @.str.127
  %call3 = call noundef nonnull align 8 dereferenceable(8) ptr @_ZStlsISt11char_traitsIcEERSt13basic_ostreamIcT_ES5_PKc(ptr noundef nonnull align 8 dereferenceable(8) %1, ptr noundef %cond)
  %call4 = call noundef i32 @_ZNK3sat7literal3varEv(ptr noundef nonnull align 4 dereferenceable(4) %l)
  %call5 = call noundef nonnull align 8 dereferenceable(8) ptr @_ZNSolsEj(ptr noundef nonnull align 8 dereferenceable(8) %call3, i32 noundef %call4)
  br label %if.end

if.end:                                           ; preds = %if.else, %if.then
  %2 = load ptr, ptr %out.addr, align 8
  ret ptr %2
}

; Function Attrs: mustprogress uwtable
define linkonce_odr hidden i32 @_ZNK2pb6solver4ineq3litEj(ptr noundef nonnull align 8 dereferenceable(16) %this, i32 noundef %i) #5 comdat align 2 {
entry:
  %retval = alloca %"class.sat::literal", align 4
  %this.addr = alloca ptr, align 8
  %i.addr = alloca i32, align 4
  store ptr %this, ptr %this.addr, align 8
  store i32 %i, ptr %i.addr, align 4
  %this1 = load ptr, ptr %this.addr, align 8
  %m_wlits = getelementptr inbounds %"struct.pb::solver::ineq", ptr %this1, i32 0, i32 0
  %0 = load i32, ptr %i.addr, align 4
  %call = call noundef nonnull align 4 dereferenceable(8) ptr @_ZNK6vectorISt4pairIjN3sat7literalEELb0EjEixEj(ptr noundef nonnull align 8 dereferenceable(8) %m_wlits, i32 noundef %0)
  %second = getelementptr inbounds %"struct.std::pair", ptr %call, i32 0, i32 1
  call void @llvm.memcpy.p0.p0.i64(ptr align 4 %retval, ptr align 4 %second, i64 4, i1 false)
  %coerce.dive = getelementptr inbounds %"class.sat::literal", ptr %retval, i32 0, i32 0
  %1 = load i32, ptr %coerce.dive, align 4
  ret i32 %1
}

; Function Attrs: mustprogress nounwind uwtable
define linkonce_odr hidden noundef i32 @_ZNK2pb6solver4ineq5coeffEj(ptr noundef nonnull align 8 dereferenceable(16) %this, i32 noundef %i) #4 comdat align 2 {
entry:
  %this.addr = alloca ptr, align 8
  %i.addr = alloca i32, align 4
  store ptr %this, ptr %this.addr, align 8
  store i32 %i, ptr %i.addr, align 4
  %this1 = load ptr, ptr %this.addr, align 8
  %m_wlits = getelementptr inbounds %"struct.pb::solver::ineq", ptr %this1, i32 0, i32 0
  %0 = load i32, ptr %i.addr, align 4
  %call = call noundef nonnull align 4 dereferenceable(8) ptr @_ZNK6vectorISt4pairIjN3sat7literalEELb0EjEixEj(ptr noundef nonnull align 8 dereferenceable(8) %m_wlits, i32 noundef %0)
  %first = getelementptr inbounds %"struct.std::pair", ptr %call, i32 0, i32 0
  %1 = load i32, ptr %first, align 4
  ret i32 %1
}

; Function Attrs: mustprogress uwtable
define linkonce_odr hidden noundef i32 @_ZNK2pb6solver4ineq4sizeEv(ptr noundef nonnull align 8 dereferenceable(16) %this) #5 comdat align 2 {
entry:
  %this.addr = alloca ptr, align 8
  store ptr %this, ptr %this.addr, align 8
  %this1 = load ptr, ptr %this.addr, align 8
  %m_wlits = getelementptr inbounds %"struct.pb::solver::ineq", ptr %this1, i32 0, i32 0
  %call = call noundef i32 @_ZNK6vectorISt4pairIjN3sat7literalEELb0EjE4sizeEv(ptr noundef nonnull align 8 dereferenceable(8) %m_wlits)
  ret i32 %call
}

; Function Attrs: mustprogress uwtable
define hidden void @_ZNK2pb6solver7displayERSoRKNS0_4ineqEb(ptr noundef nonnull align 8 dereferenceable(1049) %this, ptr noundef nonnull align 8 dereferenceable(8) %out, ptr noundef nonnull align 8 dereferenceable(16) %ineq, i1 noundef zeroext %values) #5 align 2 {
entry:
  %this.addr = alloca ptr, align 8
  %out.addr = alloca ptr, align 8
  %ineq.addr = alloca ptr, align 8
  %values.addr = alloca i8, align 1
  %i = alloca i32, align 4
  %agg.tmp = alloca %"class.sat::literal", align 4
  %agg.tmp12 = alloca %"class.sat::literal", align 4
  store ptr %this, ptr %this.addr, align 8
  store ptr %out, ptr %out.addr, align 8
  store ptr %ineq, ptr %ineq.addr, align 8
  %frombool = zext i1 %values to i8
  store i8 %frombool, ptr %values.addr, align 1
  %this1 = load ptr, ptr %this.addr, align 8
  store i32 0, ptr %i, align 4
  br label %for.cond

for.cond:                                         ; preds = %for.inc, %entry
  %0 = load i32, ptr %i, align 4
  %1 = load ptr, ptr %ineq.addr, align 8
  %call = call noundef i32 @_ZNK2pb6solver4ineq4sizeEv(ptr noundef nonnull align 8 dereferenceable(16) %1)
  %cmp = icmp ult i32 %0, %call
  br i1 %cmp, label %for.body, label %for.end

for.body:                                         ; preds = %for.cond
  %2 = load ptr, ptr %ineq.addr, align 8
  %3 = load i32, ptr %i, align 4
  %call2 = call noundef i32 @_ZNK2pb6solver4ineq5coeffEj(ptr noundef nonnull align 8 dereferenceable(16) %2, i32 noundef %3)
  %cmp3 = icmp ne i32 %call2, 1
  br i1 %cmp3, label %if.then, label %if.end

if.then:                                          ; preds = %for.body
  %4 = load ptr, ptr %out.addr, align 8
  %5 = load ptr, ptr %ineq.addr, align 8
  %6 = load i32, ptr %i, align 4
  %call4 = call noundef i32 @_ZNK2pb6solver4ineq5coeffEj(ptr noundef nonnull align 8 dereferenceable(16) %5, i32 noundef %6)
  %call5 = call noundef nonnull align 8 dereferenceable(8) ptr @_ZNSolsEj(ptr noundef nonnull align 8 dereferenceable(8) %4, i32 noundef %call4)
  %call6 = call noundef nonnull align 8 dereferenceable(8) ptr @_ZStlsISt11char_traitsIcEERSt13basic_ostreamIcT_ES5_PKc(ptr noundef nonnull align 8 dereferenceable(8) %call5, ptr noundef @.str.99)
  br label %if.end

if.end:                                           ; preds = %if.then, %for.body
  %7 = load ptr, ptr %out.addr, align 8
  %8 = load ptr, ptr %ineq.addr, align 8
  %9 = load i32, ptr %i, align 4
  %call7 = call i32 @_ZNK2pb6solver4ineq3litEj(ptr noundef nonnull align 8 dereferenceable(16) %8, i32 noundef %9)
  %coerce.dive = getelementptr inbounds %"class.sat::literal", ptr %agg.tmp, i32 0, i32 0
  store i32 %call7, ptr %coerce.dive, align 4
  %coerce.dive8 = getelementptr inbounds %"class.sat::literal", ptr %agg.tmp, i32 0, i32 0
  %10 = load i32, ptr %coerce.dive8, align 4
  %call9 = call noundef nonnull align 8 dereferenceable(8) ptr @_ZN3satlsERSoNS_7literalE(ptr noundef nonnull align 8 dereferenceable(8) %7, i32 %10)
  %call10 = call noundef nonnull align 8 dereferenceable(8) ptr @_ZStlsISt11char_traitsIcEERSt13basic_ostreamIcT_ES5_PKc(ptr noundef nonnull align 8 dereferenceable(8) %call9, ptr noundef @.str.29)
  %11 = load i8, ptr %values.addr, align 1
  %tobool = trunc i8 %11 to i1
  br i1 %tobool, label %if.then11, label %if.end19

if.then11:                                        ; preds = %if.end
  %12 = load ptr, ptr %out.addr, align 8
  %13 = load ptr, ptr %ineq.addr, align 8
  %14 = load i32, ptr %i, align 4
  %call13 = call i32 @_ZNK2pb6solver4ineq3litEj(ptr noundef nonnull align 8 dereferenceable(16) %13, i32 noundef %14)
  %coerce.dive14 = getelementptr inbounds %"class.sat::literal", ptr %agg.tmp12, i32 0, i32 0
  store i32 %call13, ptr %coerce.dive14, align 4
  %coerce.dive15 = getelementptr inbounds %"class.sat::literal", ptr %agg.tmp12, i32 0, i32 0
  %15 = load i32, ptr %coerce.dive15, align 4
  %vtable = load ptr, ptr %this1, align 8
  %vfn = getelementptr inbounds ptr, ptr %vtable, i64 65
  %16 = load ptr, ptr %vfn, align 8
  %call16 = call noundef i32 %16(ptr noundef nonnull align 8 dereferenceable(1049) %this1, i32 %15)
  %call17 = call noundef nonnull align 8 dereferenceable(8) ptr @_ZlsRSo5lbool(ptr noundef nonnull align 8 dereferenceable(8) %12, i32 noundef %call16)
  %call18 = call noundef nonnull align 8 dereferenceable(8) ptr @_ZStlsISt11char_traitsIcEERSt13basic_ostreamIcT_ES5_PKc(ptr noundef nonnull align 8 dereferenceable(8) %call17, ptr noundef @.str.29)
  br label %if.end19

if.end19:                                         ; preds = %if.then11, %if.end
  br label %for.inc

for.inc:                                          ; preds = %if.end19
  %17 = load i32, ptr %i, align 4
  %inc = add i32 %17, 1
  store i32 %inc, ptr %i, align 4
  br label %for.cond, !llvm.loop !17

for.end:                                          ; preds = %for.cond
  %18 = load ptr, ptr %out.addr, align 8
  %call20 = call noundef nonnull align 8 dereferenceable(8) ptr @_ZStlsISt11char_traitsIcEERSt13basic_ostreamIcT_ES5_PKc(ptr noundef nonnull align 8 dereferenceable(8) %18, ptr noundef @.str.100)
  %19 = load ptr, ptr %ineq.addr, align 8
  %m_k = getelementptr inbounds %"struct.pb::solver::ineq", ptr %19, i32 0, i32 1
  %20 = load i64, ptr %m_k, align 8
  %call21 = call noundef nonnull align 8 dereferenceable(8) ptr @_ZNSolsEm(ptr noundef nonnull align 8 dereferenceable(8) %call20, i64 noundef %20)
  %call22 = call noundef nonnull align 8 dereferenceable(8) ptr @_ZStlsISt11char_traitsIcEERSt13basic_ostreamIcT_ES5_PKc(ptr noundef nonnull align 8 dereferenceable(8) %call21, ptr noundef @.str.4)
  ret void
}