; Function Attrs: mustprogress uwtable
define hidden void @_ZNK2pb6solver7displayERSoRKNS0_4ineqEb(ptr noundef nonnull align 8 dereferenceable(1049) %this, ptr noundef nonnull align 8 dereferenceable(8) %out, ptr nocapture noundef nonnull readonly align 8 dereferenceable(16) %ineq, i1 noundef zeroext %values) local_unnamed_addr #3 align 2 {
entry:
  br i1 %values, label %for.cond.us, label %for.cond

for.cond.us:                                      ; preds = %entry, %_ZN3satlsERSoNS_7literalE.exit.us
  %indvars.iv24 = phi i64 [ %indvars.iv.next25, %_ZN3satlsERSoNS_7literalE.exit.us ], [ 0, %entry ]
  %0 = load ptr, ptr %ineq, align 8
  %cmp.i.i.us = icmp eq ptr %0, null
  br i1 %cmp.i.i.us, label %_ZNK2pb6solver4ineq4sizeEv.exit.us, label %if.end.i.i.us

if.end.i.i.us:                                    ; preds = %for.cond.us
  %arrayidx.i.i.us = getelementptr inbounds i8, ptr %0, i64 -4
  %1 = load i32, ptr %arrayidx.i.i.us, align 4
  br label %_ZNK2pb6solver4ineq4sizeEv.exit.us

_ZNK2pb6solver4ineq4sizeEv.exit.us:               ; preds = %if.end.i.i.us, %for.cond.us
  %retval.0.i.i.us = phi i32 [ %1, %if.end.i.i.us ], [ 0, %for.cond.us ]
  %2 = zext i32 %retval.0.i.i.us to i64
  %cmp.us = icmp ult i64 %indvars.iv24, %2
  br i1 %cmp.us, label %for.body.us, label %for.end

for.body.us:                                      ; preds = %_ZNK2pb6solver4ineq4sizeEv.exit.us
  %arrayidx.i.i14.us = getelementptr inbounds %"struct.std::pair", ptr %0, i64 %indvars.iv24
  %3 = load i32, ptr %arrayidx.i.i14.us, align 4
  %cmp3.not.us = icmp eq i32 %3, 1
  br i1 %cmp3.not.us, label %if.end.us, label %if.then.us

if.then.us:                                       ; preds = %for.body.us
  %call5.us = tail call noundef nonnull align 8 dereferenceable(8) ptr @_ZNSolsEj(ptr noundef nonnull align 8 dereferenceable(8) %out, i32 noundef %3)
  %call6.us = tail call noundef nonnull align 8 dereferenceable(8) ptr @_ZStlsISt11char_traitsIcEERSt13basic_ostreamIcT_ES5_PKc(ptr noundef nonnull align 8 dereferenceable(8) %call5.us, ptr noundef nonnull @.str.99)
  %.pre27 = load ptr, ptr %ineq, align 8
  br label %if.end.us

if.end.us:                                        ; preds = %if.then.us, %for.body.us
  %4 = phi ptr [ %.pre27, %if.then.us ], [ %0, %for.body.us ]
  %second.i.us = getelementptr inbounds %"struct.std::pair", ptr %4, i64 %indvars.iv24, i32 1
  %retval.sroa.0.0.copyload.i.us = load i32, ptr %second.i.us, align 4
  %.b = load i1, ptr @_ZN3satL12null_literalE.0, align 4
  %5 = select i1 %.b, i32 -2, i32 0
  %cmp.i.i18.us = icmp eq i32 %5, %retval.sroa.0.0.copyload.i.us
  br i1 %cmp.i.i18.us, label %if.then.i.us, label %if.else.i.us

if.else.i.us:                                     ; preds = %if.end.us
  %6 = and i32 %retval.sroa.0.0.copyload.i.us, 1
  %tobool.i.not.i.us = icmp eq i32 %6, 0
  %cond.i.us = select i1 %tobool.i.not.i.us, ptr @.str.127, ptr @.str.126
  %call3.i.us = tail call noundef nonnull align 8 dereferenceable(8) ptr @_ZStlsISt11char_traitsIcEERSt13basic_ostreamIcT_ES5_PKc(ptr noundef nonnull align 8 dereferenceable(8) %out, ptr noundef nonnull %cond.i.us)
  %shr.i.i.us = lshr i32 %retval.sroa.0.0.copyload.i.us, 1
  %call5.i.us = tail call noundef nonnull align 8 dereferenceable(8) ptr @_ZNSolsEj(ptr noundef nonnull align 8 dereferenceable(8) %call3.i.us, i32 noundef %shr.i.i.us)
  br label %_ZN3satlsERSoNS_7literalE.exit.us

if.then.i.us:                                     ; preds = %if.end.us
  %call1.i.us = tail call noundef nonnull align 8 dereferenceable(8) ptr @_ZStlsISt11char_traitsIcEERSt13basic_ostreamIcT_ES5_PKc(ptr noundef nonnull align 8 dereferenceable(8) %out, ptr noundef nonnull @.str.125)
  br label %_ZN3satlsERSoNS_7literalE.exit.us

_ZN3satlsERSoNS_7literalE.exit.us:                ; preds = %if.then.i.us, %if.else.i.us
  %call10.us = tail call noundef nonnull align 8 dereferenceable(8) ptr @_ZStlsISt11char_traitsIcEERSt13basic_ostreamIcT_ES5_PKc(ptr noundef nonnull align 8 dereferenceable(8) %out, ptr noundef nonnull @.str.29)
  %7 = load ptr, ptr %ineq, align 8
  %second.i20.us = getelementptr inbounds %"struct.std::pair", ptr %7, i64 %indvars.iv24, i32 1
  %retval.sroa.0.0.copyload.i21.us = load i32, ptr %second.i20.us, align 4
  %vtable.us = load ptr, ptr %this, align 8
  %vfn.us = getelementptr inbounds i8, ptr %vtable.us, i64 520
  %8 = load ptr, ptr %vfn.us, align 8
  %call16.us = tail call noundef i32 %8(ptr noundef nonnull align 8 dereferenceable(1049) %this, i32 %retval.sroa.0.0.copyload.i21.us)
  %call17.us = tail call noundef nonnull align 8 dereferenceable(8) ptr @_ZlsRSo5lbool(ptr noundef nonnull align 8 dereferenceable(8) %out, i32 noundef %call16.us)
  %call18.us = tail call noundef nonnull align 8 dereferenceable(8) ptr @_ZStlsISt11char_traitsIcEERSt13basic_ostreamIcT_ES5_PKc(ptr noundef nonnull align 8 dereferenceable(8) %call17.us, ptr noundef nonnull @.str.29)
  %indvars.iv.next25 = add nuw nsw i64 %indvars.iv24, 1
  br label %for.cond.us, !llvm.loop !51

for.cond:                                         ; preds = %entry, %_ZN3satlsERSoNS_7literalE.exit
  %indvars.iv = phi i64 [ %indvars.iv.next, %_ZN3satlsERSoNS_7literalE.exit ], [ 0, %entry ]
  %9 = load ptr, ptr %ineq, align 8
  %cmp.i.i = icmp eq ptr %9, null
  br i1 %cmp.i.i, label %_ZNK2pb6solver4ineq4sizeEv.exit, label %if.end.i.i

if.end.i.i:                                       ; preds = %for.cond
  %arrayidx.i.i = getelementptr inbounds i8, ptr %9, i64 -4
  %10 = load i32, ptr %arrayidx.i.i, align 4
  br label %_ZNK2pb6solver4ineq4sizeEv.exit

_ZNK2pb6solver4ineq4sizeEv.exit:                  ; preds = %for.cond, %if.end.i.i
  %retval.0.i.i = phi i32 [ %10, %if.end.i.i ], [ 0, %for.cond ]
  %11 = zext i32 %retval.0.i.i to i64
  %cmp = icmp ult i64 %indvars.iv, %11
  br i1 %cmp, label %for.body, label %for.end

for.body:                                         ; preds = %_ZNK2pb6solver4ineq4sizeEv.exit
  %arrayidx.i.i14 = getelementptr inbounds %"struct.std::pair", ptr %9, i64 %indvars.iv
  %12 = load i32, ptr %arrayidx.i.i14, align 4
  %cmp3.not = icmp eq i32 %12, 1
  br i1 %cmp3.not, label %if.end, label %if.then

if.then:                                          ; preds = %for.body
  %call5 = tail call noundef nonnull align 8 dereferenceable(8) ptr @_ZNSolsEj(ptr noundef nonnull align 8 dereferenceable(8) %out, i32 noundef %12)
  %call6 = tail call noundef nonnull align 8 dereferenceable(8) ptr @_ZStlsISt11char_traitsIcEERSt13basic_ostreamIcT_ES5_PKc(ptr noundef nonnull align 8 dereferenceable(8) %call5, ptr noundef nonnull @.str.99)
  %.pre = load ptr, ptr %ineq, align 8
  br label %if.end

if.end:                                           ; preds = %if.then, %for.body
  %13 = phi ptr [ %.pre, %if.then ], [ %9, %for.body ]
  %second.i = getelementptr inbounds %"struct.std::pair", ptr %13, i64 %indvars.iv, i32 1
  %retval.sroa.0.0.copyload.i = load i32, ptr %second.i, align 4
  %.b29 = load i1, ptr @_ZN3satL12null_literalE.0, align 4
  %14 = select i1 %.b29, i32 -2, i32 0
  %cmp.i.i18 = icmp eq i32 %14, %retval.sroa.0.0.copyload.i
  br i1 %cmp.i.i18, label %if.then.i, label %if.else.i

if.then.i:                                        ; preds = %if.end
  %call1.i = tail call noundef nonnull align 8 dereferenceable(8) ptr @_ZStlsISt11char_traitsIcEERSt13basic_ostreamIcT_ES5_PKc(ptr noundef nonnull align 8 dereferenceable(8) %out, ptr noundef nonnull @.str.125)
  br label %_ZN3satlsERSoNS_7literalE.exit

if.else.i:                                        ; preds = %if.end
  %15 = and i32 %retval.sroa.0.0.copyload.i, 1
  %tobool.i.not.i = icmp eq i32 %15, 0
  %cond.i = select i1 %tobool.i.not.i, ptr @.str.127, ptr @.str.126
  %call3.i = tail call noundef nonnull align 8 dereferenceable(8) ptr @_ZStlsISt11char_traitsIcEERSt13basic_ostreamIcT_ES5_PKc(ptr noundef nonnull align 8 dereferenceable(8) %out, ptr noundef nonnull %cond.i)
  %shr.i.i = lshr i32 %retval.sroa.0.0.copyload.i, 1
  %call5.i = tail call noundef nonnull align 8 dereferenceable(8) ptr @_ZNSolsEj(ptr noundef nonnull align 8 dereferenceable(8) %call3.i, i32 noundef %shr.i.i)
  br label %_ZN3satlsERSoNS_7literalE.exit

_ZN3satlsERSoNS_7literalE.exit:                   ; preds = %if.then.i, %if.else.i
  %call10 = tail call noundef nonnull align 8 dereferenceable(8) ptr @_ZStlsISt11char_traitsIcEERSt13basic_ostreamIcT_ES5_PKc(ptr noundef nonnull align 8 dereferenceable(8) %out, ptr noundef nonnull @.str.29)
  %indvars.iv.next = add nuw nsw i64 %indvars.iv, 1
  br label %for.cond, !llvm.loop !51

for.end:                                          ; preds = %_ZNK2pb6solver4ineq4sizeEv.exit, %_ZNK2pb6solver4ineq4sizeEv.exit.us
  %call20 = tail call noundef nonnull align 8 dereferenceable(8) ptr @_ZStlsISt11char_traitsIcEERSt13basic_ostreamIcT_ES5_PKc(ptr noundef nonnull align 8 dereferenceable(8) %out, ptr noundef nonnull @.str.100)
  %m_k = getelementptr inbounds i8, ptr %ineq, i64 8
  %16 = load i64, ptr %m_k, align 8
  %call21 = tail call noundef nonnull align 8 dereferenceable(8) ptr @_ZNSolsEm(ptr noundef nonnull align 8 dereferenceable(8) %call20, i64 noundef %16)
  %call22 = tail call noundef nonnull align 8 dereferenceable(8) ptr @_ZStlsISt11char_traitsIcEERSt13basic_ostreamIcT_ES5_PKc(ptr noundef nonnull align 8 dereferenceable(8) %call21, ptr noundef nonnull @.str.4)
  ret void
}